target datalayout = "e-m:e-p270:32:32-p271:32:32-p272:64:64-i64:64-i128:128-f80:128-n8:16:32:64-S128"
target triple = "x86_64-pc-linux-gnu"

%struct.stats_state = type { i64, i64, i64, i64, float, i32, i32, i32, i32, i8, i8, i8, i8 }
%struct.stats = type { i64, i64, i64, i64, i64, i64, i64, i64, i64, i64, i64, i64, i64, i64, i64, i64, i64, i64, i64, i64, i64, i64, i64, i64, %struct.timeval, i64, i64 }
%struct.timeval = type { i64, i64 }
%struct._stritem = type { ptr, ptr, ptr, i32, i32, i32, i16, i16, i8, i8, [0 x %union.anon] }
%union.anon = type { i64 }

@sizes = internal global [256 x i32] zeroinitializer, align 16
@hash = external global ptr, align 8
@heads = internal global [256 x ptr] zeroinitializer, align 16
@tails = internal global [256 x ptr] zeroinitializer, align 16
@sizes_bytes = internal global [256 x i64] zeroinitializer, align 16
@stats_state = external global %struct.stats_state, align 8
@stats = external global %struct.stats, align 8
@stats_sizes_hist = internal global ptr null, align 8
@stats_sizes_buckets = internal global i32 0, align 4

; Function Attrs: nounwind uwtable
define dso_local void @item_stats_sizes_add(ptr noundef %0) #0 {
  %2 = alloca ptr, align 8
  %3 = alloca i32, align 4
  %4 = alloca i32, align 4
  store ptr %0, ptr %2, align 8, !tbaa !16
  %5 = load ptr, ptr @stats_sizes_hist, align 8, !tbaa !79
  %6 = icmp eq ptr %5, null
  br i1 %6, label %7, label %8

7:                                                ; preds = %1
  br label %57

8:                                                ; preds = %1
  call void @llvm.lifetime.start.p0(i64 4, ptr %3) #9
  %9 = load ptr, ptr %2, align 8, !tbaa !16
  %10 = getelementptr inbounds nuw %struct._stritem, ptr %9, i32 0, i32 9
  %11 = load i8, ptr %10, align 1, !tbaa !30
  %12 = zext i8 %11 to i64
  %13 = add i64 48, %12
  %14 = add i64 %13, 1
  %15 = load ptr, ptr %2, align 8, !tbaa !16
  %16 = getelementptr inbounds nuw %struct._stritem, ptr %15, i32 0, i32 5
  %17 = load i32, ptr %16, align 8, !tbaa !4
  %18 = sext i32 %17 to i64
  %19 = add i64 %14, %18
  %20 = load ptr, ptr %2, align 8, !tbaa !16
  %21 = getelementptr inbounds nuw %struct._stritem, ptr %20, i32 0, i32 7
  %22 = load i16, ptr %21, align 2, !tbaa !34
  %23 = zext i16 %22 to i32
  %24 = and i32 %23, 256
  %25 = icmp ne i32 %24, 0
  %26 = select i1 %25, i64 4, i64 0
  %27 = add i64 %19, %26
  %28 = load ptr, ptr %2, align 8, !tbaa !16
  %29 = getelementptr inbounds nuw %struct._stritem, ptr %28, i32 0, i32 7
  %30 = load i16, ptr %29, align 2, !tbaa !34
  %31 = zext i16 %30 to i32
  %32 = and i32 %31, 2
  %33 = icmp ne i32 %32, 0
  %34 = select i1 %33, i64 8, i64 0
  %35 = add i64 %27, %34
  %36 = trunc i64 %35 to i32
  store i32 %36, ptr %3, align 4, !tbaa !4
  call void @llvm.lifetime.start.p0(i64 4, ptr %4) #9
  %37 = load i32, ptr %3, align 4, !tbaa !4
  %38 = sdiv i32 %37, 32
  store i32 %38, ptr %4, align 4, !tbaa !4
  %39 = load i32, ptr %3, align 4, !tbaa !4
  %40 = srem i32 %39, 32
  %41 = icmp ne i32 %40, 0
  br i1 %41, label %42, label %45

42:                                               ; preds = %8
  %43 = load i32, ptr %4, align 4, !tbaa !4
  %44 = add nsw i32 %43, 1
  store i32 %44, ptr %4, align 4, !tbaa !4
  br label %45

45:                                               ; preds = %42, %8
  %46 = load i32, ptr %4, align 4, !tbaa !4
  %47 = load i32, ptr @stats_sizes_buckets, align 4, !tbaa !4
  %48 = icmp slt i32 %46, %47
  br i1 %48, label %49, label %56

49:                                               ; preds = %45
  %50 = load ptr, ptr @stats_sizes_hist, align 8, !tbaa !79
  %51 = load i32, ptr %4, align 4, !tbaa !4
  %52 = sext i32 %51 to i64
  %53 = getelementptr inbounds i32, ptr %50, i64 %52
  %54 = load i32, ptr %53, align 4, !tbaa !4
  %55 = add i32 %54, 1
  store i32 %55, ptr %53, align 4, !tbaa !4
  br label %56

56:                                               ; preds = %49, %45
  call void @llvm.lifetime.end.p0(i64 4, ptr %4) #9
  call void @llvm.lifetime.end.p0(i64 4, ptr %3) #9
  br label %57

57:                                               ; preds = %56, %7
  ret void
}

; Function Attrs: nounwind uwtable
define dso_local void @do_item_link_fixup(ptr noundef %0) #0 {
  %2 = alloca ptr, align 8
  %3 = alloca ptr, align 8
  %4 = alloca ptr, align 8
  %5 = alloca i32, align 4
  %6 = alloca i32, align 4
  store ptr %0, ptr %2, align 8, !tbaa !16
  call void @llvm.lifetime.start.p0(i64 8, ptr %3) #9
  call void @llvm.lifetime.start.p0(i64 8, ptr %4) #9
  call void @llvm.lifetime.start.p0(i64 4, ptr %5) #9
  %7 = load ptr, ptr %2, align 8, !tbaa !16
  %8 = getelementptr inbounds nuw %struct._stritem, ptr %7, i32 0, i32 9
  %9 = load i8, ptr %8, align 1, !tbaa !30
  %10 = zext i8 %9 to i64
  %11 = add i64 48, %10
  %12 = add i64 %11, 1
  %13 = load ptr, ptr %2, align 8, !tbaa !16
  %14 = getelementptr inbounds nuw %struct._stritem, ptr %13, i32 0, i32 5
  %15 = load i32, ptr %14, align 8, !tbaa !4
  %16 = sext i32 %15 to i64
  %17 = add i64 %12, %16
  %18 = load ptr, ptr %2, align 8, !tbaa !16
  %19 = getelementptr inbounds nuw %struct._stritem, ptr %18, i32 0, i32 7
  %20 = load i16, ptr %19, align 2, !tbaa !34
  %21 = zext i16 %20 to i32
  %22 = and i32 %21, 256
  %23 = icmp ne i32 %22, 0
  %24 = select i1 %23, i64 4, i64 0
  %25 = add i64 %17, %24
  %26 = load ptr, ptr %2, align 8, !tbaa !16
  %27 = getelementptr inbounds nuw %struct._stritem, ptr %26, i32 0, i32 7
  %28 = load i16, ptr %27, align 2, !tbaa !34
  %29 = zext i16 %28 to i32
  %30 = and i32 %29, 2
  %31 = icmp ne i32 %30, 0
  %32 = select i1 %31, i64 8, i64 0
  %33 = add i64 %25, %32
  %34 = trunc i64 %33 to i32
  store i32 %34, ptr %5, align 4, !tbaa !4
  call void @llvm.lifetime.start.p0(i64 4, ptr %6) #9
  %35 = load ptr, ptr @hash, align 8, !tbaa !33
  %36 = load ptr, ptr %2, align 8, !tbaa !16
  %37 = getelementptr inbounds nuw %struct._stritem, ptr %36, i32 0, i32 10
  %38 = load ptr, ptr %2, align 8, !tbaa !16
  %39 = getelementptr inbounds nuw %struct._stritem, ptr %38, i32 0, i32 7
  %40 = load i16, ptr %39, align 2, !tbaa !34
  %41 = zext i16 %40 to i32
  %42 = and i32 %41, 2
  %43 = icmp ne i32 %42, 0
  %44 = select i1 %43, i64 8, i64 0
  %45 = getelementptr inbounds nuw i8, ptr %37, i64 %44
  %46 = load ptr, ptr %2, align 8, !tbaa !16
  %47 = getelementptr inbounds nuw %struct._stritem, ptr %46, i32 0, i32 9
  %48 = load i8, ptr %47, align 1, !tbaa !30
  %49 = zext i8 %48 to i64
  %50 = call i32 %35(ptr noundef %45, i64 noundef %49)
  store i32 %50, ptr %6, align 4, !tbaa !4
  %51 = load ptr, ptr %2, align 8, !tbaa !16
  %52 = load i32, ptr %6, align 4, !tbaa !4
  %53 = call i32 @assoc_insert(ptr noundef %51, i32 noundef %52)
  %54 = load ptr, ptr %2, align 8, !tbaa !16
  %55 = getelementptr inbounds nuw %struct._stritem, ptr %54, i32 0, i32 8
  %56 = load i8, ptr %55, align 8, !tbaa !30
  %57 = zext i8 %56 to i64
  %58 = getelementptr inbounds nuw [256 x ptr], ptr @heads, i64 0, i64 %57
  store ptr %58, ptr %3, align 8, !tbaa !70
  %59 = load ptr, ptr %2, align 8, !tbaa !16
  %60 = getelementptr inbounds nuw %struct._stritem, ptr %59, i32 0, i32 8
  %61 = load i8, ptr %60, align 8, !tbaa !30
  %62 = zext i8 %61 to i64
  %63 = getelementptr inbounds nuw [256 x ptr], ptr @tails, i64 0, i64 %62
  store ptr %63, ptr %4, align 8, !tbaa !70
  %64 = load ptr, ptr %2, align 8, !tbaa !16
  %65 = getelementptr inbounds nuw %struct._stritem, ptr %64, i32 0, i32 1
  %66 = load ptr, ptr %65, align 8, !tbaa !16
  %67 = icmp eq ptr %66, null
  br i1 %67, label %68, label %75

68:                                               ; preds = %1
  %69 = load ptr, ptr %3, align 8, !tbaa !70
  %70 = load ptr, ptr %69, align 8, !tbaa !16
  %71 = icmp eq ptr %70, null
  br i1 %71, label %72, label %75

72:                                               ; preds = %68
  %73 = load ptr, ptr %2, align 8, !tbaa !16
  %74 = load ptr, ptr %3, align 8, !tbaa !70
  store ptr %73, ptr %74, align 8, !tbaa !16
  br label %75

75:                                               ; preds = %72, %68, %1
  %76 = load ptr, ptr %2, align 8, !tbaa !16
  %77 = getelementptr inbounds nuw %struct._stritem, ptr %76, i32 0, i32 0
  %78 = load ptr, ptr %77, align 8, !tbaa !16
  %79 = icmp eq ptr %78, null
  br i1 %79, label %80, label %87

80:                                               ; preds = %75
  %81 = load ptr, ptr %4, align 8, !tbaa !70
  %82 = load ptr, ptr %81, align 8, !tbaa !16
  %83 = icmp eq ptr %82, null
  br i1 %83, label %84, label %87

84:                                               ; preds = %80
  %85 = load ptr, ptr %2, align 8, !tbaa !16
  %86 = load ptr, ptr %4, align 8, !tbaa !70
  store ptr %85, ptr %86, align 8, !tbaa !16
  br label %87

87:                                               ; preds = %84, %80, %75
  %88 = load ptr, ptr %2, align 8, !tbaa !16
  %89 = getelementptr inbounds nuw %struct._stritem, ptr %88, i32 0, i32 8
  %90 = load i8, ptr %89, align 8, !tbaa !30
  %91 = zext i8 %90 to i64
  %92 = getelementptr inbounds nuw [256 x i32], ptr @sizes, i64 0, i64 %91
  %93 = load i32, ptr %92, align 4, !tbaa !4
  %94 = add i32 %93, 1
  store i32 %94, ptr %92, align 4, !tbaa !4
  %95 = load i32, ptr %5, align 4, !tbaa !4
  %96 = sext i32 %95 to i64
  %97 = load ptr, ptr %2, align 8, !tbaa !16
  %98 = getelementptr inbounds nuw %struct._stritem, ptr %97, i32 0, i32 8
  %99 = load i8, ptr %98, align 8, !tbaa !30
  %100 = zext i8 %99 to i64
  %101 = getelementptr inbounds nuw [256 x i64], ptr @sizes_bytes, i64 0, i64 %100
  %102 = load i64, ptr %101, align 8, !tbaa !10
  %103 = add i64 %102, %96
  store i64 %103, ptr %101, align 8, !tbaa !10
  call void @STATS_LOCK()
  %104 = load i32, ptr %5, align 4, !tbaa !4
  %105 = sext i32 %104 to i64
  %106 = load i64, ptr getelementptr inbounds nuw (%struct.stats_state, ptr @stats_state, i32 0, i32 1), align 8, !tbaa !72
  %107 = add i64 %106, %105
  store i64 %107, ptr getelementptr inbounds nuw (%struct.stats_state, ptr @stats_state, i32 0, i32 1), align 8, !tbaa !72
  %108 = load i64, ptr @stats_state, align 8, !tbaa !75
  %109 = add i64 %108, 1
  store i64 %109, ptr @stats_state, align 8, !tbaa !75
  %110 = load i64, ptr @stats, align 8, !tbaa !76
  %111 = add i64 %110, 1
  store i64 %111, ptr @stats, align 8, !tbaa !76
  call void @STATS_UNLOCK()
  %112 = load ptr, ptr %2, align 8, !tbaa !16
  call void @item_stats_sizes_add(ptr noundef %112)
  call void @llvm.lifetime.end.p0(i64 4, ptr %6) #9
  call void @llvm.lifetime.end.p0(i64 4, ptr %5) #9
  call void @llvm.lifetime.end.p0(i64 8, ptr %4) #9
  call void @llvm.lifetime.end.p0(i64 8, ptr %3) #9
  ret void
}