; Function Attrs: nounwind uwtable
define dso_local void @do_item_link_fixup(ptr noundef %0) local_unnamed_addr #0 {
  %2 = getelementptr inbounds nuw i8, ptr %0, i64 41
  %3 = load i8, ptr %2, align 1, !tbaa !30
  %4 = zext i8 %3 to i64
  %5 = getelementptr inbounds nuw i8, ptr %0, i64 32
  %6 = load i32, ptr %5, align 8, !tbaa !22
  %7 = getelementptr inbounds nuw i8, ptr %0, i64 38
  %8 = load i16, ptr %7, align 2, !tbaa !31
  %9 = zext i16 %8 to i32
  %10 = shl nuw nsw i32 %9, 2
  %11 = and i32 %10, 8
  %12 = zext nneg i32 %11 to i64
  %13 = load ptr, ptr @hash, align 8, !tbaa !33
  %14 = getelementptr inbounds nuw i8, ptr %0, i64 48
  %15 = getelementptr inbounds nuw i8, ptr %14, i64 %12
  %16 = tail call i32 %13(ptr noundef nonnull %15, i64 noundef %4) #19
  %17 = tail call i32 @assoc_insert(ptr noundef %0, i32 noundef %16) #19
  %18 = getelementptr inbounds nuw i8, ptr %0, i64 40
  %19 = load i8, ptr %18, align 8, !tbaa !30
  %20 = zext i8 %19 to i64
  %21 = getelementptr inbounds nuw [256 x ptr], ptr @heads, i64 0, i64 %20
  %22 = getelementptr inbounds nuw [256 x ptr], ptr @tails, i64 0, i64 %20
  %23 = getelementptr inbounds nuw i8, ptr %0, i64 8
  %24 = load ptr, ptr %23, align 8, !tbaa !28
  %25 = icmp eq ptr %24, null
  br i1 %25, label %26, label %30

26:                                               ; preds = %1
  %27 = load ptr, ptr %21, align 8, !tbaa !28
  %28 = icmp eq ptr %27, null
  br i1 %28, label %29, label %30

29:                                               ; preds = %26
  store ptr %0, ptr %21, align 8, !tbaa !28
  br label %30

30:                                               ; preds = %29, %26, %1
  %31 = load ptr, ptr %0, align 8, !tbaa !28
  %32 = icmp eq ptr %31, null
  br i1 %32, label %33, label %37

33:                                               ; preds = %30
  %34 = load ptr, ptr %22, align 8, !tbaa !28
  %35 = icmp eq ptr %34, null
  br i1 %35, label %36, label %37

36:                                               ; preds = %33
  store ptr %0, ptr %22, align 8, !tbaa !28
  br label %37

37:                                               ; preds = %36, %33, %30
  %38 = lshr i32 %9, 6
  %39 = and i32 %38, 4
  %40 = zext i8 %3 to i32
  %41 = add nuw nsw i32 %40, 49
  %42 = add i32 %41, %6
  %43 = add i32 %42, %39
  %44 = add i32 %43, %11
  %45 = getelementptr inbounds nuw [256 x i32], ptr @sizes, i64 0, i64 %20
  %46 = load i32, ptr %45, align 4, !tbaa !22
  %47 = add i32 %46, 1
  store i32 %47, ptr %45, align 4, !tbaa !22
  %48 = sext i32 %44 to i64
  %49 = getelementptr inbounds nuw [256 x i64], ptr @sizes_bytes, i64 0, i64 %20
  %50 = load i64, ptr %49, align 8, !tbaa !14
  %51 = add i64 %50, %48
  store i64 %51, ptr %49, align 8, !tbaa !14
  tail call void @STATS_LOCK() #19
  %52 = load i64, ptr getelementptr inbounds nuw (i8, ptr @stats_state, i64 8), align 8, !tbaa !66
  %53 = add i64 %52, %48
  store i64 %53, ptr getelementptr inbounds nuw (i8, ptr @stats_state, i64 8), align 8, !tbaa !66
  %54 = load i64, ptr @stats_state, align 8, !tbaa !69
  %55 = add i64 %54, 1
  store i64 %55, ptr @stats_state, align 8, !tbaa !69
  %56 = load i64, ptr @stats, align 8, !tbaa !70
  %57 = add i64 %56, 1
  store i64 %57, ptr @stats, align 8, !tbaa !70
  tail call void @STATS_UNLOCK() #19
  %58 = load ptr, ptr @stats_sizes_hist, align 8, !tbaa !73
  %59 = icmp eq ptr %58, null
  br i1 %59, label %item_stats_sizes_add.exit, label %60

60:                                               ; preds = %37
  %61 = load i8, ptr %2, align 1, !tbaa !30
  %62 = zext i8 %61 to i32
  %63 = add nuw nsw i32 %62, 49
  %64 = load i32, ptr %5, align 8, !tbaa !22
  %65 = add i32 %63, %64
  %66 = load i16, ptr %7, align 2, !tbaa !31
  %67 = zext i16 %66 to i32
  %68 = lshr i32 %67, 6
  %69 = and i32 %68, 4
  %70 = add i32 %65, %69
  %71 = shl nuw nsw i32 %67, 2
  %72 = and i32 %71, 8
  %73 = add i32 %70, %72
  %74 = sdiv i32 %73, 32
  %75 = and i32 %73, 31
  %.not.i = icmp ne i32 %75, 0
  %76 = zext i1 %.not.i to i32
  %spec.select.i = add nsw i32 %74, %76
  %77 = load i32, ptr @stats_sizes_buckets, align 4, !tbaa !22
  %78 = icmp slt i32 %spec.select.i, %77
  br i1 %78, label %79, label %item_stats_sizes_add.exit

79:                                               ; preds = %60
  %80 = sext i32 %spec.select.i to i64
  %81 = getelementptr inbounds i32, ptr %58, i64 %80
  %82 = load i32, ptr %81, align 4, !tbaa !22
  %83 = add i32 %82, 1
  store i32 %83, ptr %81, align 4, !tbaa !22
  br label %item_stats_sizes_add.exit

item_stats_sizes_add.exit:                        ; preds = %37, %60, %79
  ret void
}